; Function Attrs: mustprogress nofree norecurse nosync nounwind memory(readwrite, inaccessiblemem: none) uwtable
define hidden noundef ptr @_ZN19ZMarkStackAllocator26create_magazine_from_spaceEmm(ptr nocapture noundef nonnull readnone align 64 dereferenceable(257) %0, i64 noundef %1, i64 noundef %2) local_unnamed_addr #6 align 2 {
  %4 = inttoptr i64 %1 to ptr
  tail call void @llvm.memset.p0.i64(ptr noundef nonnull align 8 dereferenceable(16) %4, i8 0, i64 16, i1 false)
  %5 = icmp ugt i64 %2, 2048
  br i1 %5, label %.lr.ph, label %._crit_edge

.lr.ph:                                           ; preds = %3
  %6 = getelementptr inbounds i8, ptr %4, i64 16
  br label %7

7:                                                ; preds = %.lr.ph, %_ZN6ZStackIPS_I15ZMarkStackEntryLm254EELm15EE4pushES2_.exit
  %.08 = phi i64 [ 2048, %.lr.ph ], [ %14, %_ZN6ZStackIPS_I15ZMarkStackEntryLm254EELm15EE4pushES2_.exit ]
  %8 = add i64 %.08, %1
  %9 = inttoptr i64 %8 to ptr
  tail call void @llvm.memset.p0.i64(ptr noundef nonnull align 8 dereferenceable(16) %9, i8 0, i64 16, i1 false)
  %10 = load i64, ptr %4, align 8
  %.not = icmp eq i64 %10, 15
  br i1 %.not, label %_ZN6ZStackIPS_I15ZMarkStackEntryLm254EELm15EE4pushES2_.exit, label %11

11:                                               ; preds = %7
  %12 = add i64 %10, 1
  store i64 %12, ptr %4, align 8
  %13 = getelementptr inbounds [15 x ptr], ptr %6, i64 0, i64 %10
  store ptr %9, ptr %13, align 8
  br label %_ZN6ZStackIPS_I15ZMarkStackEntryLm254EELm15EE4pushES2_.exit

_ZN6ZStackIPS_I15ZMarkStackEntryLm254EELm15EE4pushES2_.exit: ; preds = %7, %11
  %14 = add i64 %.08, 2048
  %15 = icmp ult i64 %14, %2
  br i1 %15, label %7, label %._crit_edge, !llvm.loop !10

._crit_edge:                                      ; preds = %_ZN6ZStackIPS_I15ZMarkStackEntryLm254EELm15EE4pushES2_.exit, %3
  ret ptr %4
}